CCS PCH C Compiler, Version 4.104, 5967               14-janv.-20 17:45

               Filename: C:\Users\33695\Desktop\main.lst

               ROM used: 298 bytes (1%)
                         Largest free fragment is 32470
               RAM used: 5 (0%) at main() level
                         6 (0%) worst case
               Stack:    1 locations

*
0000:  GOTO   002A
.................... #include "C:\Users\33695\Desktop\main.h" 
.................... #include <18F452.h> 
.................... //////// Standard Header file for the PIC18F452 device //////////////// 
.................... #device PIC18F452 
.................... #list 
....................  
.................... #device adc=8 
....................  
.................... #FUSES NOWDT                 	//No Watch Dog Timer 
.................... #FUSES WDT128                	//Watch Dog Timer uses 1:128 Postscale 
.................... #FUSES HS                    	//High speed Osc (> 4mhz for PCM/PCH) (>10mhz for PCD) 
.................... #FUSES NOPROTECT             	//Code not protected from reading 
.................... #FUSES NOOSCSEN              	//Oscillator switching is disabled, main oscillator is source 
.................... #FUSES NOBROWNOUT            	//No brownout reset 
.................... #FUSES BORV20                	//Brownout reset at 2.0V 
.................... #FUSES NOPUT                 	//No Power Up Timer 
.................... #FUSES STVREN                	//Stack full/underflow will cause reset 
.................... #FUSES NODEBUG               	//No Debug mode for ICD 
.................... #FUSES NOLVP                 	//No low voltage prgming, B3(PIC16) or B5(PIC18) used for I/O 
.................... #FUSES NOWRT                 	//Program memory not write protected 
.................... #FUSES NOWRTD                	//Data EEPROM not write protected 
.................... #FUSES NOWRTB                	//Boot block not write protected 
.................... #FUSES NOWRTC                	//configuration not registers write protected 
.................... #FUSES NOCPD                 	//No EE protection 
.................... #FUSES NOCPB                 	//No Boot Block code protection 
.................... #FUSES NOEBTR                	//Memory not protected from table reads 
.................... #FUSES NOEBTRB               	//Boot block not protected from table reads 
....................  
.................... #use delay(clock=20000000) 
0004:  CLRF   FEA
0006:  MOVLW  06
0008:  MOVWF  FE9
000A:  MOVF   FEF,W
000C:  BZ    0028
000E:  MOVLW  06
0010:  MOVWF  01
0012:  CLRF   00
0014:  DECFSZ 00,F
0016:  BRA    0014
0018:  DECFSZ 01,F
001A:  BRA    0012
001C:  MOVLW  7B
001E:  MOVWF  00
0020:  DECFSZ 00,F
0022:  BRA    0020
0024:  DECFSZ FEF,F
0026:  BRA    000E
0028:  RETLW  00
.................... #use rs232(baud=9600,parity=N,xmit=PIN_C6,rcv=PIN_C7,bits=8) 
....................  
....................  
....................  
....................  
.................... void main() 
.................... { 
002A:  CLRF   FF8
002C:  BCF    FD0.7
002E:  CLRF   FEA
0030:  CLRF   FE9
0032:  MOVLW  81
0034:  MOVWF  FAF
0036:  MOVLW  A6
0038:  MOVWF  FAC
003A:  MOVLW  90
003C:  MOVWF  FAB
003E:  BSF    FC1.0
0040:  BSF    FC1.1
0042:  BSF    FC1.2
0044:  BCF    FC1.3
....................  
....................    setup_adc_ports(NO_ANALOGS); 
0046:  BSF    FC1.0
0048:  BSF    FC1.1
004A:  BSF    FC1.2
004C:  BCF    FC1.3
....................    setup_adc(ADC_CLOCK_DIV_2); 
004E:  BCF    FC1.6
0050:  BCF    FC2.6
0052:  BCF    FC2.7
0054:  BCF    FC1.7
0056:  BSF    FC2.0
....................    setup_psp(PSP_DISABLED); 
0058:  BCF    F96.4
....................    setup_spi(SPI_SS_DISABLED); 
005A:  BCF    FC6.5
005C:  BCF    F94.5
005E:  BSF    F94.4
0060:  BCF    F94.3
0062:  MOVLW  01
0064:  MOVWF  FC6
0066:  MOVLW  00
0068:  MOVWF  FC7
....................    setup_wdt(WDT_OFF); 
006A:  BCF    FD1.0
....................    setup_timer_0(RTCC_INTERNAL); 
006C:  MOVLW  80
006E:  MOVWF  FD5
....................    setup_timer_1(T1_DISABLED); 
0070:  CLRF   FCD
....................    setup_timer_2(T2_DISABLED,0,1); 
0072:  MOVLW  00
0074:  MOVWF  FCA
0076:  MOVLW  00
0078:  MOVWF  FCB
.................... //Setup_Oscillator parameter not selected from Intr Oscillator Config tab 
....................  
....................    // TODO: USER CODE!! 
....................    output_d(0b100001);    
007A:  CLRF   F95
007C:  MOVLW  21
007E:  MOVWF  F8C
....................    while(true){ 
....................       delay_ms(5000); 
0080:  MOVLW  14
0082:  MOVWF  05
0084:  MOVLW  FA
0086:  MOVWF  06
0088:  RCALL  0004
008A:  DECFSZ 05,F
008C:  BRA    0084
....................       if (input(pin_b7)) 
008E:  BSF    F93.7
0090:  BTFSS  F81.7
0092:  BRA    00C2
....................       { 
....................          output_d(0b010001); 
0094:  CLRF   F95
0096:  MOVLW  11
0098:  MOVWF  F8C
....................          delay_ms(1000);          
009A:  MOVLW  04
009C:  MOVWF  05
009E:  MOVLW  FA
00A0:  MOVWF  06
00A2:  RCALL  0004
00A4:  DECFSZ 05,F
00A6:  BRA    009E
....................          output_d(0b001001); 
00A8:  CLRF   F95
00AA:  MOVLW  09
00AC:  MOVWF  F8C
....................          delay_ms(1000); 
00AE:  MOVLW  04
00B0:  MOVWF  05
00B2:  MOVLW  FA
00B4:  MOVWF  06
00B6:  RCALL  0004
00B8:  DECFSZ 05,F
00BA:  BRA    00B2
....................          output_d(0b100001); 
00BC:  CLRF   F95
00BE:  MOVLW  21
00C0:  MOVWF  F8C
....................       }       
....................       delay_ms(5000); 
00C2:  MOVLW  14
00C4:  MOVWF  05
00C6:  MOVLW  FA
00C8:  MOVWF  06
00CA:  RCALL  0004
00CC:  DECFSZ 05,F
00CE:  BRA    00C6
....................       if (input(pin_b5)) 
00D0:  BSF    F93.5
00D2:  BTFSS  F81.5
00D4:  BRA    0126
....................          { 
....................          output_d(0b010001); 
00D6:  CLRF   F95
00D8:  MOVLW  11
00DA:  MOVWF  F8C
....................          delay_ms(1000);          
00DC:  MOVLW  04
00DE:  MOVWF  05
00E0:  MOVLW  FA
00E2:  MOVWF  06
00E4:  RCALL  0004
00E6:  DECFSZ 05,F
00E8:  BRA    00E0
....................          output_d(0b001100); 
00EA:  CLRF   F95
00EC:  MOVLW  0C
00EE:  MOVWF  F8C
....................          delay_ms(1000);          
00F0:  MOVLW  04
00F2:  MOVWF  05
00F4:  MOVLW  FA
00F6:  MOVWF  06
00F8:  RCALL  0004
00FA:  DECFSZ 05,F
00FC:  BRA    00F4
....................          output_d(0b001010); 
00FE:  CLRF   F95
0100:  MOVLW  0A
0102:  MOVWF  F8C
....................          delay_ms(1000); 
0104:  MOVLW  04
0106:  MOVWF  05
0108:  MOVLW  FA
010A:  MOVWF  06
010C:  RCALL  0004
010E:  DECFSZ 05,F
0110:  BRA    0108
....................          output_d(0b100001); 
0112:  CLRF   F95
0114:  MOVLW  21
0116:  MOVWF  F8C
....................          delay_ms(1000); 
0118:  MOVLW  04
011A:  MOVWF  05
011C:  MOVLW  FA
011E:  MOVWF  06
0120:  RCALL  0004
0122:  DECFSZ 05,F
0124:  BRA    011C
....................          } 
....................    } 
0126:  BRA    0080
....................  
.................... } 
0128:  SLEEP 

Configuration Fuses:
   Word  1: 2200   HS NOOSCSEN
   Word  2: 0E0D   NOBROWNOUT WDT128 NOWDT BORV20 NOPUT
   Word  3: 0100   CCP2C1
   Word  4: 0081   STVREN NODEBUG NOLVP
   Word  5: C00F   NOPROTECT NOCPD NOCPB
   Word  6: E00F   NOWRT NOWRTD NOWRTB NOWRTC
   Word  7: 400F   NOEBTR NOEBTRB
